target datalayout = "e-m:e-p270:32:32-p271:32:32-p272:64:64-i64:64-i128:128-f80:128-n8:16:32:64-S128"
target triple = "x86_64-pc-linux-gnu"

%struct.AVFilterContext = type { ptr, ptr, ptr, ptr, ptr, i32, ptr, ptr, i32, ptr, ptr, i32, i32, ptr, ptr, ptr, ptr, i32, ptr, i32, i32 }
%struct.ThumbContext = type { ptr, i32, i32, i32, ptr, %struct.AVRational, i32, ptr, [4 x i32], [4 x i32] }
%struct.AVRational = type { i32, i32 }

@.str.17 = private unnamed_addr constant [55 x i8] c"Allocation failure, try to lower the number of frames\0A\00", align 1
@.str.18 = private unnamed_addr constant [23 x i8] c"batch size: %d frames\0A\00", align 1

; Function Attrs: cold nounwind optsize uwtable
define internal i32 @init(ptr noundef %0) #0 {
  %2 = alloca i32, align 4
  %3 = alloca ptr, align 8
  %4 = alloca ptr, align 8
  %5 = alloca i32, align 4
  store ptr %0, ptr %3, align 8, !tbaa !4
  call void @llvm.lifetime.start.p0(i64 8, ptr %4) #10
  %6 = load ptr, ptr %3, align 8, !tbaa !4
  %7 = getelementptr inbounds nuw %struct.AVFilterContext, ptr %6, i32 0, i32 9
  %8 = load ptr, ptr %7, align 8, !tbaa !9
  store ptr %8, ptr %4, align 8, !tbaa !22
  %9 = load ptr, ptr %4, align 8, !tbaa !22
  %10 = getelementptr inbounds nuw %struct.ThumbContext, ptr %9, i32 0, i32 3
  %11 = load i32, ptr %10, align 8, !tbaa !24
  %12 = sext i32 %11 to i64
  %13 = call noalias ptr @av_calloc(i64 noundef %12, i64 noundef 3080)
  %14 = load ptr, ptr %4, align 8, !tbaa !22
  %15 = getelementptr inbounds nuw %struct.ThumbContext, ptr %14, i32 0, i32 4
  store ptr %13, ptr %15, align 8, !tbaa !29
  %16 = load ptr, ptr %4, align 8, !tbaa !22
  %17 = getelementptr inbounds nuw %struct.ThumbContext, ptr %16, i32 0, i32 4
  %18 = load ptr, ptr %17, align 8, !tbaa !29
  %19 = icmp ne ptr %18, null
  br i1 %19, label %22, label %20

20:                                               ; preds = %1
  %21 = load ptr, ptr %3, align 8, !tbaa !4
  call void (ptr, i32, ptr, ...) @av_log(ptr noundef %21, i32 noundef 16, ptr noundef @.str.17)
  store i32 -12, ptr %2, align 4
  store i32 1, ptr %5, align 4
  br label %27

22:                                               ; preds = %1
  %23 = load ptr, ptr %3, align 8, !tbaa !4
  %24 = load ptr, ptr %4, align 8, !tbaa !22
  %25 = getelementptr inbounds nuw %struct.ThumbContext, ptr %24, i32 0, i32 3
  %26 = load i32, ptr %25, align 8, !tbaa !24
  call void (ptr, i32, ptr, ...) @av_log(ptr noundef %23, i32 noundef 40, ptr noundef @.str.18, i32 noundef %26)
  store i32 0, ptr %2, align 4
  store i32 1, ptr %5, align 4
  br label %27

27:                                               ; preds = %22, %20
  call void @llvm.lifetime.end.p0(i64 8, ptr %4) #10
  %28 = load i32, ptr %2, align 4
  ret i32 %28
}