; Function Attrs: cold nounwind optsize uwtable
define internal range(i32 -12, 1) i32 @init(ptr noundef %0) #0 {
  %2 = getelementptr inbounds nuw i8, ptr %0, i64 72
  %3 = load ptr, ptr %2, align 8, !tbaa !4
  %4 = getelementptr inbounds nuw i8, ptr %3, i64 16
  %5 = load i32, ptr %4, align 8, !tbaa !20
  %6 = sext i32 %5 to i64
  %7 = tail call noalias ptr @av_calloc(i64 noundef %6, i64 noundef 3080) #9
  %8 = getelementptr inbounds nuw i8, ptr %3, i64 24
  store ptr %7, ptr %8, align 8, !tbaa !25
  %.not = icmp eq ptr %7, null
  br i1 %.not, label %9, label %10

9:                                                ; preds = %1
  tail call void (ptr, i32, ptr, ...) @av_log(ptr noundef nonnull %0, i32 noundef 16, ptr noundef nonnull @.str.17) #9
  br label %12

10:                                               ; preds = %1
  %11 = load i32, ptr %4, align 8, !tbaa !20
  tail call void (ptr, i32, ptr, ...) @av_log(ptr noundef nonnull %0, i32 noundef 40, ptr noundef nonnull @.str.18, i32 noundef %11) #9
  br label %12

12:                                               ; preds = %10, %9
  %.0 = phi i32 [ 0, %10 ], [ -12, %9 ]
  ret i32 %.0
}